target datalayout = "e-m:e-p270:32:32-p271:32:32-p272:64:64-i64:64-i128:128-f80:128-n8:16:32:64-S128"
target triple = "x86_64-unknown-linux-gnu"

%"class.zmq::mechanism_base_t" = type { %"class.zmq::mechanism_t", ptr }
%"class.zmq::mechanism_t" = type { ptr, %"struct.zmq::options_t", %"class.std::map", %"class.std::map", %"struct.zmq::blob_t", %"struct.zmq::blob_t" }
%"struct.zmq::options_t" = type { i32, i32, i64, i8, [256 x i8], i32, i32, i32, i32, i32, i32, i32, i32, i8, %"struct.zmq::atomic_value_t", i32, i32, i32, i32, i32, i32, i64, i32, i32, i8, i32, i8, i8, i8, i8, i8, %"class.std::__cxx11::basic_string", %"class.std::__cxx11::basic_string", %"class.std::__cxx11::basic_string", i32, i32, i32, i32, %"class.std::vector", %"class.std::set", %"class.std::set", %"class.std::set.6", i32, i32, %"class.std::__cxx11::basic_string", %"class.std::__cxx11::basic_string", %"class.std::__cxx11::basic_string", [32 x i8], [32 x i8], [32 x i8], %"class.std::__cxx11::basic_string", %"class.std::__cxx11::basic_string", i32, i32, i8, i32, i8, i32, i8, i16, i32, i32, i32, %"class.std::__cxx11::basic_string", i8, i8, i8, i32, i32, i8, i32, %"class.std::map", i32, %"class.std::__cxx11::basic_string", %"class.std::__cxx11::basic_string", %"class.std::__cxx11::basic_string", %"class.std::__cxx11::basic_string", i8, %"class.std::vector.21", i8, %"class.std::vector.21", i8, %"class.std::vector.21", i8, i32, i8, i32, i32, i32, i32, i32, i8, i32 }
%"struct.zmq::atomic_value_t" = type { %"struct.std::atomic" }
%"struct.std::atomic" = type { %"struct.std::__atomic_base" }
%"struct.std::__atomic_base" = type { i32 }
%"class.std::vector" = type { %"struct.std::_Vector_base" }
%"struct.std::_Vector_base" = type { %"struct.std::_Vector_base<zmq::tcp_address_mask_t, std::allocator<zmq::tcp_address_mask_t>>::_Vector_impl" }
%"struct.std::_Vector_base<zmq::tcp_address_mask_t, std::allocator<zmq::tcp_address_mask_t>>::_Vector_impl" = type { %"struct.std::_Vector_base<zmq::tcp_address_mask_t, std::allocator<zmq::tcp_address_mask_t>>::_Vector_impl_data" }
%"struct.std::_Vector_base<zmq::tcp_address_mask_t, std::allocator<zmq::tcp_address_mask_t>>::_Vector_impl_data" = type { ptr, ptr, ptr }
%"class.std::set" = type { %"class.std::_Rb_tree" }
%"class.std::_Rb_tree" = type { %"struct.std::_Rb_tree<unsigned int, unsigned int, std::_Identity<unsigned int>, std::less<unsigned int>>::_Rb_tree_impl" }
%"struct.std::_Rb_tree<unsigned int, unsigned int, std::_Identity<unsigned int>, std::less<unsigned int>>::_Rb_tree_impl" = type { %"struct.std::_Rb_tree_key_compare", %"struct.std::_Rb_tree_header" }
%"struct.std::_Rb_tree_key_compare" = type { %"struct.std::less" }
%"struct.std::less" = type { i8 }
%"struct.std::_Rb_tree_header" = type { %"struct.std::_Rb_tree_node_base", i64 }
%"struct.std::_Rb_tree_node_base" = type { i32, ptr, ptr, ptr }
%"class.std::set.6" = type { %"class.std::_Rb_tree.7" }
%"class.std::_Rb_tree.7" = type { %"struct.std::_Rb_tree<int, int, std::_Identity<int>, std::less<int>>::_Rb_tree_impl" }
%"struct.std::_Rb_tree<int, int, std::_Identity<int>, std::less<int>>::_Rb_tree_impl" = type { %"struct.std::_Rb_tree_key_compare.11", %"struct.std::_Rb_tree_header" }
%"struct.std::_Rb_tree_key_compare.11" = type { %"struct.std::less.12" }
%"struct.std::less.12" = type { i8 }
%"class.std::__cxx11::basic_string" = type { %"struct.std::__cxx11::basic_string<char>::_Alloc_hider", i64, %union.anon }
%"struct.std::__cxx11::basic_string<char>::_Alloc_hider" = type { ptr }
%union.anon = type { i64, [8 x i8] }
%"class.std::vector.21" = type { %"struct.std::_Vector_base.22" }
%"struct.std::_Vector_base.22" = type { %"struct.std::_Vector_base<unsigned char, std::allocator<unsigned char>>::_Vector_impl" }
%"struct.std::_Vector_base<unsigned char, std::allocator<unsigned char>>::_Vector_impl" = type { %"struct.std::_Vector_base<unsigned char, std::allocator<unsigned char>>::_Vector_impl_data" }
%"struct.std::_Vector_base<unsigned char, std::allocator<unsigned char>>::_Vector_impl_data" = type { ptr, ptr, ptr }
%"class.std::map" = type { %"class.std::_Rb_tree.14" }
%"class.std::_Rb_tree.14" = type { %"struct.std::_Rb_tree<std::__cxx11::basic_string<char>, std::pair<const std::__cxx11::basic_string<char>, std::__cxx11::basic_string<char>>, std::_Select1st<std::pair<const std::__cxx11::basic_string<char>, std::__cxx11::basic_string<char>>>, std::less<std::__cxx11::basic_string<char>>>::_Rb_tree_impl" }
%"struct.std::_Rb_tree<std::__cxx11::basic_string<char>, std::pair<const std::__cxx11::basic_string<char>, std::__cxx11::basic_string<char>>, std::_Select1st<std::pair<const std::__cxx11::basic_string<char>, std::__cxx11::basic_string<char>>>, std::less<std::__cxx11::basic_string<char>>>::_Rb_tree_impl" = type { %"struct.std::_Rb_tree_key_compare.18", %"struct.std::_Rb_tree_header" }
%"struct.std::_Rb_tree_key_compare.18" = type { %"struct.std::less.19" }
%"struct.std::less.19" = type { i8 }
%"struct.zmq::blob_t" = type <{ ptr, i64, i8, [7 x i8] }>

@_ZN3zmqL14welcome_prefixE = internal constant [9 x i8] c"\07WELCOME\00", align 1
@_ZN3zmqL12ready_prefixE = internal constant [7 x i8] c"\05READY\00", align 1
@_ZN3zmqL12error_prefixE = internal constant [6 x i8] c"^RROR\00", align 1
@stderr = external global ptr, align 8
@.str = private unnamed_addr constant [12 x i8] c"%s (%s:%d)\0A\00", align 1
@.str.1 = private unnamed_addr constant [112 x i8] c"generated/home/dtcxzyw/WorkSpace/Projects/compilers/llvm-opt-benchmark/bench/libzmq/libzmq/src/plain_client.cpp\00", align 1

; Function Attrs: mustprogress uwtable
define noundef i32 @_ZN3zmq14plain_client_t25process_handshake_commandEPNS_5msg_tE(ptr noundef nonnull align 8 dereferenceable(1504) %this, ptr noundef %msg_) unnamed_addr #0 align 2 {
entry:
  %this.addr = alloca ptr, align 8
  %msg_.addr = alloca ptr, align 8
  %cmd_data = alloca ptr, align 8
  %data_size = alloca i64, align 8
  %rc = alloca i32, align 4
  %errstr = alloca ptr, align 8
  %errstr40 = alloca ptr, align 8
  store ptr %this, ptr %this.addr, align 8
  store ptr %msg_, ptr %msg_.addr, align 8
  %this1 = load ptr, ptr %this.addr, align 8
  %0 = load ptr, ptr %msg_.addr, align 8
  %call = call noundef ptr @_ZN3zmq5msg_t4dataEv(ptr noundef nonnull align 8 dereferenceable(64) %0)
  store ptr %call, ptr %cmd_data, align 8
  %1 = load ptr, ptr %msg_.addr, align 8
  %call2 = call noundef i64 @_ZNK3zmq5msg_t4sizeEv(ptr noundef nonnull align 8 dereferenceable(64) %1)
  store i64 %call2, ptr %data_size, align 8
  store i32 0, ptr %rc, align 4
  %2 = load i64, ptr %data_size, align 8
  %cmp = icmp uge i64 %2, 8
  br i1 %cmp, label %land.lhs.true, label %if.else

land.lhs.true:                                    ; preds = %entry
  %3 = load ptr, ptr %cmd_data, align 8
  %call3 = call i32 @memcmp(ptr noundef %3, ptr noundef @_ZN3zmqL14welcome_prefixE, i64 noundef 8) #11
  %tobool = icmp ne i32 %call3, 0
  br i1 %tobool, label %if.else, label %if.then

if.then:                                          ; preds = %land.lhs.true
  %4 = load ptr, ptr %cmd_data, align 8
  %5 = load i64, ptr %data_size, align 8
  %call4 = call noundef i32 @_ZN3zmq14plain_client_t15process_welcomeEPKhm(ptr noundef nonnull align 8 dereferenceable(1504) %this1, ptr noundef %4, i64 noundef %5)
  store i32 %call4, ptr %rc, align 4
  br label %if.end24

if.else:                                          ; preds = %land.lhs.true, %entry
  %6 = load i64, ptr %data_size, align 8
  %cmp5 = icmp uge i64 %6, 6
  br i1 %cmp5, label %land.lhs.true6, label %if.else11

land.lhs.true6:                                   ; preds = %if.else
  %7 = load ptr, ptr %cmd_data, align 8
  %call7 = call i32 @memcmp(ptr noundef %7, ptr noundef @_ZN3zmqL12ready_prefixE, i64 noundef 6) #11
  %tobool8 = icmp ne i32 %call7, 0
  br i1 %tobool8, label %if.else11, label %if.then9

if.then9:                                         ; preds = %land.lhs.true6
  %8 = load ptr, ptr %cmd_data, align 8
  %9 = load i64, ptr %data_size, align 8
  %call10 = call noundef i32 @_ZN3zmq14plain_client_t13process_readyEPKhm(ptr noundef nonnull align 8 dereferenceable(1504) %this1, ptr noundef %8, i64 noundef %9)
  store i32 %call10, ptr %rc, align 4
  br label %if.end23

if.else11:                                        ; preds = %land.lhs.true6, %if.else
  %10 = load i64, ptr %data_size, align 8
  %cmp12 = icmp uge i64 %10, 5
  br i1 %cmp12, label %land.lhs.true13, label %if.else18

land.lhs.true13:                                  ; preds = %if.else11
  %11 = load ptr, ptr %cmd_data, align 8
  %call14 = call i32 @memcmp(ptr noundef %11, ptr noundef @_ZN3zmqL12error_prefixE, i64 noundef 5) #11
  %tobool15 = icmp ne i32 %call14, 0
  br i1 %tobool15, label %if.else18, label %if.then16

if.then16:                                        ; preds = %land.lhs.true13
  %12 = load ptr, ptr %cmd_data, align 8
  %13 = load i64, ptr %data_size, align 8
  %call17 = call noundef i32 @_ZN3zmq14plain_client_t13process_errorEPKhm(ptr noundef nonnull align 8 dereferenceable(1504) %this1, ptr noundef %12, i64 noundef %13)
  store i32 %call17, ptr %rc, align 4
  br label %if.end

if.else18:                                        ; preds = %land.lhs.true13, %if.else11
  %session = getelementptr inbounds %"class.zmq::mechanism_base_t", ptr %this1, i32 0, i32 1
  %14 = load ptr, ptr %session, align 8
  %call19 = call noundef ptr @_ZNK3zmq14session_base_t10get_socketEv(ptr noundef nonnull align 8 dereferenceable(1624) %14)
  %session20 = getelementptr inbounds %"class.zmq::mechanism_base_t", ptr %this1, i32 0, i32 1
  %15 = load ptr, ptr %session20, align 8
  %call21 = call noundef nonnull align 8 dereferenceable(68) ptr @_ZNK3zmq14session_base_t12get_endpointEv(ptr noundef nonnull align 8 dereferenceable(1624) %15)
  call void @_ZN3zmq13socket_base_t31event_handshake_failed_protocolERKNS_19endpoint_uri_pair_tEi(ptr noundef nonnull align 8 dereferenceable(1825) %call19, ptr noundef nonnull align 8 dereferenceable(68) %call21, i32 noundef 268435457)
  %call22 = call ptr @__errno_location() #10
  store i32 71, ptr %call22, align 4
  store i32 -1, ptr %rc, align 4
  br label %if.end

if.end:                                           ; preds = %if.else18, %if.then16
  br label %if.end23

if.end23:                                         ; preds = %if.end, %if.then9
  br label %if.end24

if.end24:                                         ; preds = %if.end23, %if.then
  %16 = load i32, ptr %rc, align 4
  %cmp25 = icmp eq i32 %16, 0
  br i1 %cmp25, label %if.then26, label %if.end47

if.then26:                                        ; preds = %if.end24
  %17 = load ptr, ptr %msg_.addr, align 8
  %call27 = call noundef i32 @_ZN3zmq5msg_t5closeEv(ptr noundef nonnull align 8 dereferenceable(64) %17)
  store i32 %call27, ptr %rc, align 4
  br label %do.body

do.body:                                          ; preds = %if.then26
  %18 = load i32, ptr %rc, align 4
  %cmp28 = icmp eq i32 %18, 0
  %lnot = xor i1 %cmp28, true
  br i1 %lnot, label %if.then29, label %if.end34

if.then29:                                        ; preds = %do.body
  %call30 = call ptr @__errno_location() #10
  %19 = load i32, ptr %call30, align 4
  %call31 = call ptr @strerror(i32 noundef %19) #8
  store ptr %call31, ptr %errstr, align 8
  %20 = load ptr, ptr @stderr, align 8
  %21 = load ptr, ptr %errstr, align 8
  %call32 = call i32 (ptr, ptr, ...) @fprintf(ptr noundef %20, ptr noundef @.str, ptr noundef %21, ptr noundef @.str.1, i32 noundef 70)
  %22 = load ptr, ptr @stderr, align 8
  %call33 = call i32 @fflush(ptr noundef %22)
  %23 = load ptr, ptr %errstr, align 8
  call void @_ZN3zmq9zmq_abortEPKc(ptr noundef %23)
  br label %if.end34

if.end34:                                         ; preds = %if.then29, %do.body
  br label %do.end

do.end:                                           ; preds = %if.end34
  %24 = load ptr, ptr %msg_.addr, align 8
  %call35 = call noundef i32 @_ZN3zmq5msg_t4initEv(ptr noundef nonnull align 8 dereferenceable(64) %24)
  store i32 %call35, ptr %rc, align 4
  br label %do.body36

do.body36:                                        ; preds = %do.end
  %25 = load i32, ptr %rc, align 4
  %cmp37 = icmp eq i32 %25, 0
  %lnot38 = xor i1 %cmp37, true
  br i1 %lnot38, label %if.then39, label %if.end45

if.then39:                                        ; preds = %do.body36
  %call41 = call ptr @__errno_location() #10
  %26 = load i32, ptr %call41, align 4
  %call42 = call ptr @strerror(i32 noundef %26) #8
  store ptr %call42, ptr %errstr40, align 8
  %27 = load ptr, ptr @stderr, align 8
  %28 = load ptr, ptr %errstr40, align 8
  %call43 = call i32 (ptr, ptr, ...) @fprintf(ptr noundef %27, ptr noundef @.str, ptr noundef %28, ptr noundef @.str.1, i32 noundef 72)
  %29 = load ptr, ptr @stderr, align 8
  %call44 = call i32 @fflush(ptr noundef %29)
  %30 = load ptr, ptr %errstr40, align 8
  call void @_ZN3zmq9zmq_abortEPKc(ptr noundef %30)
  br label %if.end45

if.end45:                                         ; preds = %if.then39, %do.body36
  br label %do.end46

do.end46:                                         ; preds = %if.end45
  br label %if.end47

if.end47:                                         ; preds = %do.end46, %if.end24
  %31 = load i32, ptr %rc, align 4
  ret i32 %31
}