; Function Attrs: mustprogress uwtable
define noundef i32 @_ZN3zmq14plain_client_t25process_handshake_commandEPNS_5msg_tE(ptr noundef nonnull align 8 dereferenceable(1504) %this, ptr noundef nonnull %msg_) unnamed_addr #0 align 2 {
entry:
  %call = tail call noundef ptr @_ZN3zmq5msg_t4dataEv(ptr noundef nonnull align 8 dereferenceable(64) %msg_)
  %call2 = tail call noundef i64 @_ZNK3zmq5msg_t4sizeEv(ptr noundef nonnull align 8 dereferenceable(64) %msg_)
  %cmp = icmp ugt i64 %call2, 7
  br i1 %cmp, label %land.lhs.true, label %if.else

land.lhs.true:                                    ; preds = %entry
  %bcmp = tail call i32 @bcmp(ptr noundef nonnull dereferenceable(8) %call, ptr noundef nonnull dereferenceable(8) @_ZN3zmqL14welcome_prefixE, i64 8)
  %tobool.not = icmp eq i32 %bcmp, 0
  br i1 %tobool.not, label %if.then, label %land.lhs.true6

if.then:                                          ; preds = %land.lhs.true
  %call4 = tail call noundef i32 @_ZN3zmq14plain_client_t15process_welcomeEPKhm(ptr noundef nonnull align 8 dereferenceable(1504) %this, ptr poison, i64 noundef %call2), !range !4
  br label %if.end24

if.else:                                          ; preds = %entry
  %cmp5 = icmp ugt i64 %call2, 5
  br i1 %cmp5, label %land.lhs.true6, label %if.else11

land.lhs.true6:                                   ; preds = %land.lhs.true, %if.else
  %bcmp19 = tail call i32 @bcmp(ptr noundef nonnull dereferenceable(6) %call, ptr noundef nonnull dereferenceable(6) @_ZN3zmqL12ready_prefixE, i64 6)
  %tobool8.not = icmp eq i32 %bcmp19, 0
  br i1 %tobool8.not, label %if.then9, label %land.lhs.true13

if.then9:                                         ; preds = %land.lhs.true6
  %call10 = tail call noundef i32 @_ZN3zmq14plain_client_t13process_readyEPKhm(ptr noundef nonnull align 8 dereferenceable(1504) %this, ptr noundef %call, i64 noundef %call2)
  br label %if.end24

if.else11:                                        ; preds = %if.else
  %cmp12 = icmp eq i64 %call2, 5
  br i1 %cmp12, label %land.lhs.true13, label %if.end24.thread

land.lhs.true13:                                  ; preds = %land.lhs.true6, %if.else11
  %bcmp20 = tail call i32 @bcmp(ptr noundef nonnull dereferenceable(5) %call, ptr noundef nonnull dereferenceable(5) @_ZN3zmqL12error_prefixE, i64 5)
  %tobool15.not = icmp eq i32 %bcmp20, 0
  br i1 %tobool15.not, label %if.then16, label %if.end24.thread

if.then16:                                        ; preds = %land.lhs.true13
  %call17 = tail call noundef i32 @_ZN3zmq14plain_client_t13process_errorEPKhm(ptr noundef nonnull align 8 dereferenceable(1504) %this, ptr noundef %call, i64 noundef %call2), !range !4
  br label %if.end24

if.end24.thread:                                  ; preds = %if.else11, %land.lhs.true13
  %session = getelementptr inbounds i8, ptr %this, i64 1488
  %0 = load ptr, ptr %session, align 8
  %call19 = tail call noundef ptr @_ZNK3zmq14session_base_t10get_socketEv(ptr noundef nonnull align 8 dereferenceable(1624) %0)
  %1 = load ptr, ptr %session, align 8
  %call21 = tail call noundef nonnull align 8 dereferenceable(68) ptr @_ZNK3zmq14session_base_t12get_endpointEv(ptr noundef nonnull align 8 dereferenceable(1624) %1)
  tail call void @_ZN3zmq13socket_base_t31event_handshake_failed_protocolERKNS_19endpoint_uri_pair_tEi(ptr noundef nonnull align 8 dereferenceable(1825) %call19, ptr noundef nonnull align 8 dereferenceable(68) %call21, i32 noundef 268435457)
  %call22 = tail call ptr @__errno_location() #12
  store i32 71, ptr %call22, align 4
  br label %if.end47

if.end24:                                         ; preds = %if.then9, %if.then16, %if.then
  %rc.0 = phi i32 [ %call17, %if.then16 ], [ %call10, %if.then9 ], [ %call4, %if.then ]
  %cmp25 = icmp eq i32 %rc.0, 0
  br i1 %cmp25, label %if.then26, label %if.end47

if.then26:                                        ; preds = %if.end24
  %call27 = tail call noundef i32 @_ZN3zmq5msg_t5closeEv(ptr noundef nonnull align 8 dereferenceable(64) %msg_)
  %cmp28.not = icmp eq i32 %call27, 0
  br i1 %cmp28.not, label %do.end, label %if.then29

if.then29:                                        ; preds = %if.then26
  %call30 = tail call ptr @__errno_location() #12
  %2 = load i32, ptr %call30, align 4
  %call31 = tail call ptr @strerror(i32 noundef %2) #10
  %3 = load ptr, ptr @stderr, align 8
  %call32 = tail call i32 (ptr, ptr, ...) @fprintf(ptr noundef %3, ptr noundef nonnull @.str, ptr noundef %call31, ptr noundef nonnull @.str.1, i32 noundef 70) #13
  %4 = load ptr, ptr @stderr, align 8
  %call33 = tail call i32 @fflush(ptr noundef %4)
  tail call void @_ZN3zmq9zmq_abortEPKc(ptr noundef %call31)
  br label %do.end

do.end:                                           ; preds = %if.then26, %if.then29
  %call35 = tail call noundef i32 @_ZN3zmq5msg_t4initEv(ptr noundef nonnull align 8 dereferenceable(64) %msg_)
  %cmp37.not = icmp eq i32 %call35, 0
  br i1 %cmp37.not, label %if.end47, label %if.then39

if.then39:                                        ; preds = %do.end
  %call41 = tail call ptr @__errno_location() #12
  %5 = load i32, ptr %call41, align 4
  %call42 = tail call ptr @strerror(i32 noundef %5) #10
  %6 = load ptr, ptr @stderr, align 8
  %call43 = tail call i32 (ptr, ptr, ...) @fprintf(ptr noundef %6, ptr noundef nonnull @.str, ptr noundef %call42, ptr noundef nonnull @.str.1, i32 noundef 72) #13
  %7 = load ptr, ptr @stderr, align 8
  %call44 = tail call i32 @fflush(ptr noundef %7)
  tail call void @_ZN3zmq9zmq_abortEPKc(ptr noundef %call42)
  br label %if.end47

if.end47:                                         ; preds = %if.end24.thread, %if.then39, %do.end, %if.end24
  %rc.1 = phi i32 [ %call35, %if.then39 ], [ 0, %do.end ], [ %rc.0, %if.end24 ], [ -1, %if.end24.thread ]
  ret i32 %rc.1
}